target datalayout = "e-m:e-p270:32:32-p271:32:32-p272:64:64-i64:64-i128:128-f80:128-n8:16:32:64-S128"
target triple = "x86_64-pc-linux-gnu"

%struct._wmem_strbuf_t = type { ptr, ptr, i64, i64 }

; Function Attrs: nounwind null_pointer_is_valid sspstrong uwtable
define void @wmem_strbuf_truncate(ptr noundef %0, i64 noundef %1) #9 {
  %3 = alloca ptr, align 8
  %4 = alloca i64, align 8
  store ptr %0, ptr %3, align 8
  store i64 %1, ptr %4, align 8
  %5 = load i64, ptr %4, align 8
  %6 = load ptr, ptr %3, align 8
  %7 = getelementptr inbounds nuw %struct._wmem_strbuf_t, ptr %6, i32 0, i32 2
  %8 = load i64, ptr %7, align 8
  %9 = icmp uge i64 %5, %8
  br i1 %9, label %10, label %11

10:                                               ; preds = %2
  br label %20

11:                                               ; preds = %2
  %12 = load ptr, ptr %3, align 8
  %13 = getelementptr inbounds nuw %struct._wmem_strbuf_t, ptr %12, i32 0, i32 1
  %14 = load ptr, ptr %13, align 8
  %15 = load i64, ptr %4, align 8
  %16 = getelementptr i8, ptr %14, i64 %15
  store i8 0, ptr %16, align 1
  %17 = load i64, ptr %4, align 8
  %18 = load ptr, ptr %3, align 8
  %19 = getelementptr inbounds nuw %struct._wmem_strbuf_t, ptr %18, i32 0, i32 2
  store i64 %17, ptr %19, align 8
  br label %20

20:                                               ; preds = %11, %10
  ret void
}