; Function Attrs: mustprogress nofree norecurse nosync nounwind null_pointer_is_valid sspstrong willreturn memory(write, argmem: readwrite, inaccessiblemem: none) uwtable
define void @wmem_strbuf_truncate(ptr noundef captures(none) %0, i64 noundef %1) local_unnamed_addr #7 {
  %3 = getelementptr inbounds nuw i8, ptr %0, i64 16
  %4 = load i64, ptr %3, align 8
  %.not = icmp ult i64 %1, %4
  br i1 %.not, label %5, label %9

5:                                                ; preds = %2
  %6 = getelementptr inbounds nuw i8, ptr %0, i64 8
  %7 = load ptr, ptr %6, align 8
  %8 = getelementptr i8, ptr %7, i64 %1
  store i8 0, ptr %8, align 1
  store i64 %1, ptr %3, align 8
  br label %9

9:                                                ; preds = %2, %5
  ret void
}